; Function Attrs: nounwind sspstrong uwtable
define internal void @secondary_class_init(ptr noundef %klass, ptr readnone captures(none) %data) #0 {
entry:
  %call.i = tail call ptr @object_class_dynamic_cast_assert(ptr noundef %klass, ptr noundef nonnull @.str.7, ptr noundef nonnull @.str.8, i32 noundef 77, ptr noundef nonnull @__func__.DEVICE_CLASS) #4
  %call.i5 = tail call ptr @object_class_dynamic_cast_assert(ptr noundef %klass, ptr noundef nonnull @.str.4, ptr noundef nonnull @.str.9, i32 noundef 10, ptr noundef nonnull @__func__.PCI_DEVICE_CLASS) #4
  %realize = getelementptr inbounds nuw i8, ptr %call.i5, i64 176
  store ptr @pci_secondary_vga_realize, ptr %realize, align 8
  %exit = getelementptr inbounds nuw i8, ptr %call.i5, i64 184
  store ptr @pci_secondary_vga_exit, ptr %exit, align 8
  %class_id = getelementptr inbounds nuw i8, ptr %call.i5, i64 214
  store i16 896, ptr %class_id, align 2
  tail call void @device_class_set_props(ptr noundef %call.i, ptr noundef nonnull @secondary_pci_properties) #4
  %reset = getelementptr inbounds nuw i8, ptr %call.i, i64 136
  store ptr @pci_secondary_vga_reset, ptr %reset, align 8
  ret void
}